; Function Attrs: mustprogress uwtable
define void @_ZN7rocksdb30GetMutableDBOptionsFromStringsERKNS_16MutableDBOptionsERKSt13unordered_mapINSt7__cxx1112basic_stringIcSt11char_traitsIcESaIcEEES9_St4hashIS9_ESt8equal_toIS9_ESaISt4pairIKS9_S9_EEEPS0_(ptr dead_on_unwind noalias writable sret(%"class.rocksdb::Status") align 8 %0, ptr noundef nonnull align 8 dereferenceable(144) %1, ptr noundef nonnull align 8 dereferenceable(56) %2, ptr noundef initializes((0, 108)) %3) local_unnamed_addr #6 personality ptr @__gxx_personality_v0 {
  %5 = alloca %"struct.rocksdb::ConfigOptions", align 8
  tail call void @llvm.memcpy.p0.p0.i64(ptr noundef nonnull align 8 dereferenceable(144) %3, ptr noundef nonnull align 8 dereferenceable(144) %1, i64 108, i1 false)
  %6 = getelementptr inbounds nuw i8, ptr %3, i64 112
  %7 = getelementptr inbounds nuw i8, ptr %1, i64 112
  tail call void @_ZNSt7__cxx1112basic_stringIcSt11char_traitsIcESaIcEE9_M_assignERKS4_(ptr noundef nonnull align 8 dereferenceable(32) %6, ptr noundef nonnull align 8 dereferenceable(32) %7)
  call void @llvm.lifetime.start.p0(i64 80, ptr nonnull %5) #27
  call void @_ZN7rocksdb13ConfigOptionsC1Ev(ptr noundef nonnull align 8 dereferenceable(80) %5)
  invoke void @_ZN7rocksdb14OptionTypeInfo9ParseTypeERKNS_13ConfigOptionsERKSt13unordered_mapINSt7__cxx1112basic_stringIcSt11char_traitsIcESaIcEEESA_St4hashISA_ESt8equal_toISA_ESaISt4pairIKSA_SA_EEERKS4_ISA_S0_SC_SE_SaISF_ISG_S0_EEEPvPSJ_(ptr dead_on_unwind writable sret(%"class.rocksdb::Status") align 8 %0, ptr noundef nonnull align 8 dereferenceable(80) %5, ptr noundef nonnull align 8 dereferenceable(56) %2, ptr noundef nonnull align 8 dereferenceable(56) @_ZN7rocksdbL28db_mutable_options_type_infoB5cxx11E, ptr noundef nonnull %3, ptr noundef null)
          to label %8 unwind label %12

8:                                                ; preds = %4
  %9 = load i8, ptr %0, align 8, !tbaa !331
  %10 = icmp eq i8 %9, 0
  br i1 %10, label %_ZN7rocksdb16MutableDBOptionsaSERKS0_.exit, label %11

11:                                               ; preds = %8
  call void @llvm.memcpy.p0.p0.i64(ptr noundef nonnull align 8 dereferenceable(144) %3, ptr noundef nonnull align 8 dereferenceable(144) %1, i64 108, i1 false)
  invoke void @_ZNSt7__cxx1112basic_stringIcSt11char_traitsIcESaIcEE9_M_assignERKS4_(ptr noundef nonnull align 8 dereferenceable(32) %6, ptr noundef nonnull align 8 dereferenceable(32) %7)
          to label %_ZN7rocksdb16MutableDBOptionsaSERKS0_.exit unwind label %14

12:                                               ; preds = %4
  %13 = landingpad { ptr, i32 }
          cleanup
  br label %50

14:                                               ; preds = %11
  %15 = landingpad { ptr, i32 }
          cleanup
  %16 = getelementptr inbounds nuw i8, ptr %0, i64 8
  %17 = load ptr, ptr %16, align 8, !tbaa !342
  %.not.i.i = icmp eq ptr %17, null
  br i1 %.not.i.i, label %_ZN7rocksdb6StatusD2Ev.exit, label %_ZNKSt14default_deleteIA_KcEclIS0_EENSt9enable_ifIXsr14is_convertibleIPA_T_PS1_EE5valueEvE4typeEPS5_.exit.i.i

_ZNKSt14default_deleteIA_KcEclIS0_EENSt9enable_ifIXsr14is_convertibleIPA_T_PS1_EE5valueEvE4typeEPS5_.exit.i.i: ; preds = %14
  call void @_ZdaPv(ptr noundef nonnull %17) #26
  br label %_ZN7rocksdb6StatusD2Ev.exit

_ZN7rocksdb6StatusD2Ev.exit:                      ; preds = %14, %_ZNKSt14default_deleteIA_KcEclIS0_EENSt9enable_ifIXsr14is_convertibleIPA_T_PS1_EE5valueEvE4typeEPS5_.exit.i.i
  store ptr null, ptr %16, align 8, !tbaa !342
  br label %50

_ZN7rocksdb16MutableDBOptionsaSERKS0_.exit:       ; preds = %11, %8
  %18 = getelementptr inbounds nuw i8, ptr %5, i64 72
  %19 = load ptr, ptr %18, align 8, !tbaa !169
  %.not.i.i.i = icmp eq ptr %19, null
  br i1 %.not.i.i.i, label %_ZNSt12__shared_ptrIN7rocksdb14ObjectRegistryELN9__gnu_cxx12_Lock_policyE2EED2Ev.exit.i, label %20

20:                                               ; preds = %_ZN7rocksdb16MutableDBOptionsaSERKS0_.exit
  %21 = getelementptr inbounds nuw i8, ptr %19, i64 8
  %22 = load atomic i64, ptr %21 acquire, align 8
  %23 = icmp eq i64 %22, 4294967297
  %24 = trunc i64 %22 to i32
  br i1 %23, label %25, label %33

25:                                               ; preds = %20
  store i32 0, ptr %21, align 8, !tbaa !312
  %26 = getelementptr inbounds nuw i8, ptr %19, i64 12
  store i32 0, ptr %26, align 4, !tbaa !314
  %27 = load ptr, ptr %19, align 8, !tbaa !83
  %28 = getelementptr inbounds nuw i8, ptr %27, i64 16
  %29 = load ptr, ptr %28, align 8
  call void %29(ptr noundef nonnull align 8 dereferenceable(16) %19) #27
  %30 = load ptr, ptr %19, align 8, !tbaa !83
  %31 = getelementptr inbounds nuw i8, ptr %30, i64 24
  %32 = load ptr, ptr %31, align 8
  call void %32(ptr noundef nonnull align 8 dereferenceable(16) %19) #27
  br label %_ZNSt12__shared_ptrIN7rocksdb14ObjectRegistryELN9__gnu_cxx12_Lock_policyE2EED2Ev.exit.i

33:                                               ; preds = %20
  %34 = load i8, ptr @__libc_single_threaded, align 1, !tbaa !13
  %.not.i.i.i.i = icmp eq i8 %34, 0
  br i1 %.not.i.i.i.i, label %37, label %35

35:                                               ; preds = %33
  %36 = add nsw i32 %24, -1
  store i32 %36, ptr %21, align 4, !tbaa !170
  br label %_ZN9__gnu_cxx27__exchange_and_add_dispatchEPii.exit.i.i.i.i

37:                                               ; preds = %33
  %38 = atomicrmw volatile add ptr %21, i32 -1 acq_rel, align 4
  br label %_ZN9__gnu_cxx27__exchange_and_add_dispatchEPii.exit.i.i.i.i

_ZN9__gnu_cxx27__exchange_and_add_dispatchEPii.exit.i.i.i.i: ; preds = %37, %35
  %.0.i.i.i.i.i = phi i32 [ %24, %35 ], [ %38, %37 ]
  %39 = icmp eq i32 %.0.i.i.i.i.i, 1
  br i1 %39, label %40, label %_ZNSt12__shared_ptrIN7rocksdb14ObjectRegistryELN9__gnu_cxx12_Lock_policyE2EED2Ev.exit.i, !prof !182

40:                                               ; preds = %_ZN9__gnu_cxx27__exchange_and_add_dispatchEPii.exit.i.i.i.i
  call void @_ZNSt16_Sp_counted_baseILN9__gnu_cxx12_Lock_policyE2EE24_M_release_last_use_coldEv(ptr noundef nonnull align 8 dereferenceable(16) %19) #27
  br label %_ZNSt12__shared_ptrIN7rocksdb14ObjectRegistryELN9__gnu_cxx12_Lock_policyE2EED2Ev.exit.i

_ZNSt12__shared_ptrIN7rocksdb14ObjectRegistryELN9__gnu_cxx12_Lock_policyE2EED2Ev.exit.i: ; preds = %40, %_ZN9__gnu_cxx27__exchange_and_add_dispatchEPii.exit.i.i.i.i, %25, %_ZN7rocksdb16MutableDBOptionsaSERKS0_.exit
  %41 = getelementptr inbounds nuw i8, ptr %5, i64 8
  %42 = load ptr, ptr %41, align 8, !tbaa !4
  %43 = getelementptr inbounds nuw i8, ptr %5, i64 24
  %44 = icmp eq ptr %42, %43
  br i1 %44, label %_ZNKSt7__cxx1112basic_stringIcSt11char_traitsIcESaIcEE11_M_is_localEv.exit.thread.i.i.i, label %_ZNKSt7__cxx1112basic_stringIcSt11char_traitsIcESaIcEE11_M_is_localEv.exit.i.i.i

_ZNKSt7__cxx1112basic_stringIcSt11char_traitsIcESaIcEE11_M_is_localEv.exit.thread.i.i.i: ; preds = %_ZNSt12__shared_ptrIN7rocksdb14ObjectRegistryELN9__gnu_cxx12_Lock_policyE2EED2Ev.exit.i
  %45 = getelementptr inbounds nuw i8, ptr %5, i64 16
  %46 = load i64, ptr %45, align 8, !tbaa !12
  %47 = icmp ult i64 %46, 16
  call void @llvm.assume(i1 %47)
  br label %_ZN7rocksdb13ConfigOptionsD2Ev.exit

_ZNKSt7__cxx1112basic_stringIcSt11char_traitsIcESaIcEE11_M_is_localEv.exit.i.i.i: ; preds = %_ZNSt12__shared_ptrIN7rocksdb14ObjectRegistryELN9__gnu_cxx12_Lock_policyE2EED2Ev.exit.i
  %48 = load i64, ptr %43, align 8, !tbaa !13
  %49 = add i64 %48, 1
  call void @_ZdlPvm(ptr noundef %42, i64 noundef %49) #26
  br label %_ZN7rocksdb13ConfigOptionsD2Ev.exit

_ZN7rocksdb13ConfigOptionsD2Ev.exit:              ; preds = %_ZNKSt7__cxx1112basic_stringIcSt11char_traitsIcESaIcEE11_M_is_localEv.exit.thread.i.i.i, %_ZNKSt7__cxx1112basic_stringIcSt11char_traitsIcESaIcEE11_M_is_localEv.exit.i.i.i
  call void @llvm.lifetime.end.p0(i64 80, ptr nonnull %5) #27
  ret void

50:                                               ; preds = %_ZN7rocksdb6StatusD2Ev.exit, %12
  %.pn = phi { ptr, i32 } [ %15, %_ZN7rocksdb6StatusD2Ev.exit ], [ %13, %12 ]
  call void @_ZN7rocksdb13ConfigOptionsD2Ev(ptr noundef nonnull align 8 dereferenceable(80) %5) #27
  call void @llvm.lifetime.end.p0(i64 80, ptr nonnull %5) #27
  resume { ptr, i32 } %.pn
}